target datalayout = "e-m:e-p270:32:32-p271:32:32-p272:64:64-i64:64-i128:128-f80:128-n8:16:32:64-S128"
target triple = "x86_64-unknown-linux-gnu"

%"class.grpc_core::ConnectedSubchannel" = type { %"class.grpc_core::RefCounted", ptr, %"class.grpc_core::ChannelArgs", %"class.grpc_core::RefCountedPtr" }
%"class.grpc_core::RefCounted" = type { %"class.grpc_core::PolymorphicRefCount", %"class.grpc_core::RefCount" }
%"class.grpc_core::PolymorphicRefCount" = type { ptr }
%"class.grpc_core::RefCount" = type { %"struct.std::atomic.0" }
%"struct.std::atomic.0" = type { %"struct.std::__atomic_base.1" }
%"struct.std::__atomic_base.1" = type { i64 }
%"class.grpc_core::ChannelArgs" = type { %"class.grpc_core::AVL" }
%"class.grpc_core::AVL" = type { %"class.grpc_core::RefCountedPtr.2" }
%"class.grpc_core::RefCountedPtr.2" = type { ptr }
%"class.grpc_core::RefCountedPtr" = type { ptr }
%"class.grpc_core::ArenaPromise" = type { %"struct.grpc_core::arena_promise_detail::VtableAndArg" }
%"struct.grpc_core::arena_promise_detail::VtableAndArg" = type { ptr, [8 x i8], %"struct.grpc_core::arena_promise_detail::ArgType" }
%"struct.grpc_core::arena_promise_detail::ArgType" = type { [8 x i8], [8 x i8] }
%class.anon = type { %"class.grpc_core::cancel_callback_detail::Handler", %"class.grpc_core::promise_detail::PromiseLike" }
%"class.grpc_core::cancel_callback_detail::Handler" = type <{ %class.anon.16, i8, [7 x i8] }>
%class.anon.16 = type { %"class.grpc_core::RefCountedPtr.17" }
%"class.grpc_core::RefCountedPtr.17" = type { ptr }
%"class.grpc_core::promise_detail::PromiseLike" = type { %"class.grpc_core::promise_detail::Seq" }
%"class.grpc_core::promise_detail::Seq" = type { %"struct.grpc_core::promise_detail::SeqState" }
%"struct.grpc_core::promise_detail::SeqState" = type <{ %union.anon.18, i8, [15 x i8] }>
%union.anon.18 = type { %"struct.grpc_core::promise_detail::SeqState<grpc_core::promise_detail::SeqTraits, grpc_core::ArenaPromise<std::unique_ptr<grpc_metadata_batch, grpc_core::Arena::PooledDeleter>>, (lambda at /home/dtcxzyw/WorkSpace/Projects/compilers/llvm-opt-benchmark/bench/grpc/grpc/src/core/ext/filters/client_channel/subchannel.cc:148:11)>::Running0" }
%"struct.grpc_core::promise_detail::SeqState<grpc_core::promise_detail::SeqTraits, grpc_core::ArenaPromise<std::unique_ptr<grpc_metadata_batch, grpc_core::Arena::PooledDeleter>>, (lambda at /home/dtcxzyw/WorkSpace/Projects/compilers/llvm-opt-benchmark/bench/grpc/grpc/src/core/ext/filters/client_channel/subchannel.cc:148:11)>::Running0" = type { %"class.grpc_core::promise_detail::PromiseLike.19", %"class.grpc_core::promise_detail::OncePromiseFactory", [8 x i8] }
%"class.grpc_core::promise_detail::PromiseLike.19" = type { %"class.grpc_core::ArenaPromise" }
%"class.grpc_core::promise_detail::OncePromiseFactory" = type { %class.anon.20 }
%class.anon.20 = type { %"class.grpc_core::RefCountedPtr.17" }
%"class.std::__cxx11::basic_string" = type { %"struct.std::__cxx11::basic_string<char>::_Alloc_hider", i64, %union.anon.29 }
%"struct.std::__cxx11::basic_string<char>::_Alloc_hider" = type { ptr }
%union.anon.29 = type { i64, [8 x i8] }
%"class.grpc_core::channelz::SubchannelNode" = type { %"class.grpc_core::channelz::BaseNode", %"struct.std::atomic.31", %"class.absl::lts_20230802::Mutex", %"class.grpc_core::RefCountedPtr.32", %"class.std::__cxx11::basic_string", %"class.grpc_core::channelz::CallCountingHelper", %"class.grpc_core::channelz::ChannelTrace" }
%"class.grpc_core::channelz::BaseNode" = type { %"class.grpc_core::RefCounted.30", i32, i64, %"class.std::__cxx11::basic_string" }
%"class.grpc_core::RefCounted.30" = type { %"class.grpc_core::PolymorphicRefCount", %"class.grpc_core::RefCount" }
%"struct.std::atomic.31" = type { i32 }
%"class.absl::lts_20230802::Mutex" = type { %"struct.std::atomic.0" }
%"class.grpc_core::RefCountedPtr.32" = type { ptr }
%"class.grpc_core::channelz::CallCountingHelper" = type { %"struct.std::atomic.0", %"struct.std::atomic.0", %"struct.std::atomic.0", %"struct.std::atomic.33" }
%"struct.std::atomic.33" = type { double }
%"class.grpc_core::channelz::ChannelTrace" = type { i64, i64, i64, i64, ptr, ptr, %struct.gpr_timespec }
%struct.gpr_timespec = type { i64, i32, i32 }

@.str.3 = private unnamed_addr constant [137 x i8] c"generated/home/dtcxzyw/WorkSpace/Projects/compilers/llvm-opt-benchmark/bench/grpc/grpc/src/core/ext/filters/client_channel/subchannel.cc\00", align 1
@.str.10 = private unnamed_addr constant [31 x i8] c"channelz_subchannel != nullptr\00", align 1

; Function Attrs: mustprogress nounwind uwtable
define linkonce_odr void @_ZNK9grpc_core11UnrefDeleteclIKNS_19ConnectedSubchannelEEEvPT_(ptr noundef nonnull align 1 dereferenceable(1) %this, ptr noundef %p) #5 comdat align 2 {
entry:
  %this.addr = alloca ptr, align 8
  %p.addr = alloca ptr, align 8
  store ptr %this, ptr %this.addr, align 8
  store ptr %p, ptr %p.addr, align 8
  %0 = load ptr, ptr %p.addr, align 8
  %isnull = icmp eq ptr %0, null
  br i1 %isnull, label %delete.end, label %delete.notnull

delete.notnull:                                   ; preds = %entry
  %vtable = load ptr, ptr %0, align 8
  %vfn = getelementptr inbounds ptr, ptr %vtable, i64 1
  %1 = load ptr, ptr %vfn, align 8
  call void %1(ptr noundef nonnull align 8 dereferenceable(40) %0) #3
  br label %delete.end

delete.end:                                       ; preds = %delete.notnull, %entry
  ret void
}

; Function Attrs: mustprogress nounwind uwtable
define linkonce_odr noundef zeroext i1 @_ZN9grpc_core8RefCount5UnrefEv(ptr noundef nonnull align 8 dereferenceable(8) %this) #5 comdat align 2 {
entry:
  %this.addr.i = alloca ptr, align 8
  %__i.addr.i = alloca i64, align 8
  %__m.addr.i = alloca i32, align 4
  %.atomictmp.i = alloca i64, align 8
  %atomic-temp.i = alloca i64, align 8
  %this.addr = alloca ptr, align 8
  %prior = alloca i64, align 8
  store ptr %this, ptr %this.addr, align 8
  %this1 = load ptr, ptr %this.addr, align 8
  %value_ = getelementptr inbounds %"class.grpc_core::RefCount", ptr %this1, i32 0, i32 0
  store ptr %value_, ptr %this.addr.i, align 8
  store i64 1, ptr %__i.addr.i, align 8
  store i32 4, ptr %__m.addr.i, align 4
  %this1.i = load ptr, ptr %this.addr.i, align 8
  %0 = load i32, ptr %__m.addr.i, align 4
  %1 = load i64, ptr %__i.addr.i, align 8
  store i64 %1, ptr %.atomictmp.i, align 8
  switch i32 %0, label %monotonic.i [
    i32 1, label %acquire.i
    i32 2, label %acquire.i
    i32 3, label %release.i
    i32 4, label %acqrel.i
    i32 5, label %seqcst.i
  ]

monotonic.i:                                      ; preds = %entry
  %2 = load i64, ptr %.atomictmp.i, align 8
  %3 = atomicrmw sub ptr %this1.i, i64 %2 monotonic, align 8
  store i64 %3, ptr %atomic-temp.i, align 8
  br label %_ZNSt13__atomic_baseIlE9fetch_subElSt12memory_order.exit

acquire.i:                                        ; preds = %entry, %entry
  %4 = load i64, ptr %.atomictmp.i, align 8
  %5 = atomicrmw sub ptr %this1.i, i64 %4 acquire, align 8
  store i64 %5, ptr %atomic-temp.i, align 8
  br label %_ZNSt13__atomic_baseIlE9fetch_subElSt12memory_order.exit

release.i:                                        ; preds = %entry
  %6 = load i64, ptr %.atomictmp.i, align 8
  %7 = atomicrmw sub ptr %this1.i, i64 %6 release, align 8
  store i64 %7, ptr %atomic-temp.i, align 8
  br label %_ZNSt13__atomic_baseIlE9fetch_subElSt12memory_order.exit

acqrel.i:                                         ; preds = %entry
  %8 = load i64, ptr %.atomictmp.i, align 8
  %9 = atomicrmw sub ptr %this1.i, i64 %8 acq_rel, align 8
  store i64 %9, ptr %atomic-temp.i, align 8
  br label %_ZNSt13__atomic_baseIlE9fetch_subElSt12memory_order.exit

seqcst.i:                                         ; preds = %entry
  %10 = load i64, ptr %.atomictmp.i, align 8
  %11 = atomicrmw sub ptr %this1.i, i64 %10 seq_cst, align 8
  store i64 %11, ptr %atomic-temp.i, align 8
  br label %_ZNSt13__atomic_baseIlE9fetch_subElSt12memory_order.exit

_ZNSt13__atomic_baseIlE9fetch_subElSt12memory_order.exit: ; preds = %seqcst.i, %acqrel.i, %release.i, %acquire.i, %monotonic.i
  %12 = load i64, ptr %atomic-temp.i, align 8
  store i64 %12, ptr %prior, align 8
  %13 = load i64, ptr %prior, align 8
  %cmp = icmp eq i64 %13, 1
  ret i1 %cmp
}

; Function Attrs: mustprogress uwtable
define linkonce_odr void @_ZNK9grpc_core10RefCountedINS_19ConnectedSubchannelENS_19PolymorphicRefCountENS_11UnrefDeleteEE5UnrefEv(ptr noundef nonnull align 8 dereferenceable(16) %this) #4 comdat align 2 {
entry:
  %this.addr = alloca ptr, align 8
  store ptr %this, ptr %this.addr, align 8
  %this1 = load ptr, ptr %this.addr, align 8
  %refs_ = getelementptr inbounds %"class.grpc_core::RefCounted", ptr %this1, i32 0, i32 1
  %call = call noundef zeroext i1 @_ZN9grpc_core8RefCount5UnrefEv(ptr noundef nonnull align 8 dereferenceable(8) %refs_)
  br i1 %call, label %if.then, label %if.end

if.then:                                          ; preds = %entry
  call void @_ZNK9grpc_core11UnrefDeleteclIKNS_19ConnectedSubchannelEEEvPT_(ptr noundef nonnull align 1 dereferenceable(1) %this1, ptr noundef %this1)
  br label %if.end

if.end:                                           ; preds = %if.then, %entry
  ret void
}

; Function Attrs: mustprogress nounwind uwtable
define linkonce_odr noundef ptr @_ZNK9grpc_core13RefCountedPtrINS_8channelz14SubchannelNodeEE3getEv(ptr noundef nonnull align 8 dereferenceable(8) %this) #5 comdat align 2 {
entry:
  %this.addr = alloca ptr, align 8
  store ptr %this, ptr %this.addr, align 8
  %this1 = load ptr, ptr %this.addr, align 8
  %value_ = getelementptr inbounds %"class.grpc_core::RefCountedPtr", ptr %this1, i32 0, i32 0
  %0 = load ptr, ptr %value_, align 8
  ret ptr %0
}

; Function Attrs: mustprogress nounwind uwtable
define linkonce_odr void @_ZN9grpc_core13RefCountedPtrINS_19ConnectedSubchannelEED2Ev(ptr noundef nonnull align 8 dereferenceable(8) %this) unnamed_addr #5 comdat align 2 personality ptr @__gxx_personality_v0 {
entry:
  %this.addr = alloca ptr, align 8
  store ptr %this, ptr %this.addr, align 8
  %this1 = load ptr, ptr %this.addr, align 8
  %value_ = getelementptr inbounds %"class.grpc_core::RefCountedPtr.17", ptr %this1, i32 0, i32 0
  %0 = load ptr, ptr %value_, align 8
  %cmp = icmp ne ptr %0, null
  br i1 %cmp, label %if.then, label %if.end

if.then:                                          ; preds = %entry
  %value_2 = getelementptr inbounds %"class.grpc_core::RefCountedPtr.17", ptr %this1, i32 0, i32 0
  %1 = load ptr, ptr %value_2, align 8
  invoke void @_ZNK9grpc_core10RefCountedINS_19ConnectedSubchannelENS_19PolymorphicRefCountENS_11UnrefDeleteEE5UnrefEv(ptr noundef nonnull align 8 dereferenceable(16) %1)
          to label %invoke.cont unwind label %terminate.lpad

invoke.cont:                                      ; preds = %if.then
  br label %if.end

if.end:                                           ; preds = %invoke.cont, %entry
  ret void

terminate.lpad:                                   ; preds = %if.then
  %2 = landingpad { ptr, i32 }
          catch ptr null
  %3 = extractvalue { ptr, i32 } %2, 0
  call void @__clang_call_terminate(ptr %3) #18
  unreachable
}

; Function Attrs: mustprogress uwtable
define linkonce_odr void @_ZN9grpc_core8channelz14SubchannelNode16RecordCallFailedEv(ptr noundef nonnull align 8 dereferenceable(216) %this) #4 comdat align 2 {
entry:
  %this.addr = alloca ptr, align 8
  store ptr %this, ptr %this.addr, align 8
  %this1 = load ptr, ptr %this.addr, align 8
  %call_counter_ = getelementptr inbounds %"class.grpc_core::channelz::SubchannelNode", ptr %this1, i32 0, i32 5
  call void @_ZN9grpc_core8channelz18CallCountingHelper16RecordCallFailedEv(ptr noundef nonnull align 8 dereferenceable(32) %call_counter_)
  ret void
}

; Function Attrs: mustprogress uwtable
define linkonce_odr noundef ptr @_ZNK9grpc_core19ConnectedSubchannel19channelz_subchannelEv(ptr noundef nonnull align 8 dereferenceable(40) %this) #4 comdat align 2 {
entry:
  %this.addr = alloca ptr, align 8
  store ptr %this, ptr %this.addr, align 8
  %this1 = load ptr, ptr %this.addr, align 8
  %channelz_subchannel_ = getelementptr inbounds %"class.grpc_core::ConnectedSubchannel", ptr %this1, i32 0, i32 3
  %call = call noundef ptr @_ZNK9grpc_core13RefCountedPtrINS_8channelz14SubchannelNodeEE3getEv(ptr noundef nonnull align 8 dereferenceable(8) %channelz_subchannel_)
  ret ptr %call
}

; Function Attrs: mustprogress nounwind uwtable
define linkonce_odr noundef ptr @_ZNK9grpc_core13RefCountedPtrINS_19ConnectedSubchannelEEptEv(ptr noundef nonnull align 8 dereferenceable(8) %this) #5 comdat align 2 {
entry:
  %this.addr = alloca ptr, align 8
  store ptr %this, ptr %this.addr, align 8
  %this1 = load ptr, ptr %this.addr, align 8
  %value_ = getelementptr inbounds %"class.grpc_core::RefCountedPtr.17", ptr %this1, i32 0, i32 0
  %0 = load ptr, ptr %value_, align 8
  ret ptr %0
}

; Function Attrs: mustprogress nounwind uwtable
define internal void @"_ZZN9grpc_core19ConnectedSubchannel15MakeCallPromiseENS_8CallArgsEEN3$_1D2Ev"(ptr noundef nonnull align 8 dereferenceable(8) %this) unnamed_addr #5 align 2 {
entry:
  %this.addr = alloca ptr, align 8
  store ptr %this, ptr %this.addr, align 8
  %this1 = load ptr, ptr %this.addr, align 8
  %0 = getelementptr inbounds %class.anon.16, ptr %this1, i32 0, i32 0
  call void @_ZN9grpc_core13RefCountedPtrINS_19ConnectedSubchannelEED2Ev(ptr noundef nonnull align 8 dereferenceable(8) %0) #3
  ret void
}

; Function Attrs: mustprogress uwtable
define internal void @"_ZZN9grpc_core19ConnectedSubchannel15MakeCallPromiseENS_8CallArgsEENK3$_1clEv"(ptr noundef nonnull align 8 dereferenceable(8) %this) #4 align 2 {
entry:
  %this.addr = alloca ptr, align 8
  %channelz_subchannel = alloca ptr, align 8
  store ptr %this, ptr %this.addr, align 8
  %this1 = load ptr, ptr %this.addr, align 8
  %0 = getelementptr inbounds %class.anon.16, ptr %this1, i32 0, i32 0
  %call = call noundef ptr @_ZNK9grpc_core13RefCountedPtrINS_19ConnectedSubchannelEEptEv(ptr noundef nonnull align 8 dereferenceable(8) %0)
  %call2 = call noundef ptr @_ZNK9grpc_core19ConnectedSubchannel19channelz_subchannelEv(ptr noundef nonnull align 8 dereferenceable(40) %call)
  store ptr %call2, ptr %channelz_subchannel, align 8
  br label %do.body

do.body:                                          ; preds = %entry
  %1 = load ptr, ptr %channelz_subchannel, align 8
  %cmp = icmp ne ptr %1, null
  %lnot = xor i1 %cmp, true
  br i1 %lnot, label %if.then, label %if.end

if.then:                                          ; preds = %do.body
  call void @gpr_assertion_failed(ptr noundef @.str.3, i32 noundef 163, ptr noundef @.str.10) #20
  unreachable

if.end:                                           ; preds = %do.body
  br label %do.end

do.end:                                           ; preds = %if.end
  %2 = load ptr, ptr %channelz_subchannel, align 8
  call void @_ZN9grpc_core8channelz14SubchannelNode16RecordCallFailedEv(ptr noundef nonnull align 8 dereferenceable(216) %2)
  ret void
}

; Function Attrs: mustprogress nounwind uwtable
define internal void @"_ZN9grpc_core22cancel_callback_detail7HandlerIZNS_19ConnectedSubchannel15MakeCallPromiseENS_8CallArgsEE3$_1ED2Ev"(ptr noundef nonnull align 8 dereferenceable(9) %this) unnamed_addr #5 align 2 personality ptr @__gxx_personality_v0 {
entry:
  %this.addr = alloca ptr, align 8
  store ptr %this, ptr %this.addr, align 8
  %this1 = load ptr, ptr %this.addr, align 8
  %done_ = getelementptr inbounds %"class.grpc_core::cancel_callback_detail::Handler", ptr %this1, i32 0, i32 1
  %0 = load i8, ptr %done_, align 8
  %tobool = trunc i8 %0 to i1
  br i1 %tobool, label %if.end, label %if.then

if.then:                                          ; preds = %entry
  %fn_ = getelementptr inbounds %"class.grpc_core::cancel_callback_detail::Handler", ptr %this1, i32 0, i32 0
  invoke void @"_ZZN9grpc_core19ConnectedSubchannel15MakeCallPromiseENS_8CallArgsEENK3$_1clEv"(ptr noundef nonnull align 8 dereferenceable(8) %fn_)
          to label %invoke.cont unwind label %terminate.lpad

invoke.cont:                                      ; preds = %if.then
  br label %if.end

if.end:                                           ; preds = %invoke.cont, %entry
  %fn_2 = getelementptr inbounds %"class.grpc_core::cancel_callback_detail::Handler", ptr %this1, i32 0, i32 0
  call void @"_ZZN9grpc_core19ConnectedSubchannel15MakeCallPromiseENS_8CallArgsEEN3$_1D2Ev"(ptr noundef nonnull align 8 dereferenceable(8) %fn_2) #3
  ret void

terminate.lpad:                                   ; preds = %if.then
  %1 = landingpad { ptr, i32 }
          catch ptr null
  %2 = extractvalue { ptr, i32 } %1, 0
  call void @__clang_call_terminate(ptr %2) #18
  unreachable
}

; Function Attrs: mustprogress nounwind uwtable
define internal void @"_ZN9grpc_core14promise_detail11PromiseLikeINS0_3SeqINS_12ArenaPromiseISt10unique_ptrI19grpc_metadata_batchNS_5Arena13PooledDeleterEEEEJZNS_19ConnectedSubchannel15MakeCallPromiseENS_8CallArgsEE3$_0EEEvED2Ev"(ptr noundef nonnull align 16 dereferenceable(64) %this) unnamed_addr #5 align 2 {
entry:
  %this.addr = alloca ptr, align 8
  store ptr %this, ptr %this.addr, align 8
  %this1 = load ptr, ptr %this.addr, align 8
  %f_ = getelementptr inbounds %"class.grpc_core::promise_detail::PromiseLike", ptr %this1, i32 0, i32 0
  call void @"_ZN9grpc_core14promise_detail3SeqINS_12ArenaPromiseISt10unique_ptrI19grpc_metadata_batchNS_5Arena13PooledDeleterEEEEJZNS_19ConnectedSubchannel15MakeCallPromiseENS_8CallArgsEE3$_0EED2Ev"(ptr noundef nonnull align 16 dereferenceable(64) %f_) #3
  ret void
}

; Function Attrs: mustprogress nounwind uwtable
define internal void @"_ZZN9grpc_core8OnCancelINS_14promise_detail3SeqINS_12ArenaPromiseISt10unique_ptrI19grpc_metadata_batchNS_5Arena13PooledDeleterEEEEJZNS_19ConnectedSubchannel15MakeCallPromiseENS_8CallArgsEE3$_0EEEZNSA_15MakeCallPromiseESB_E3$_1EEDaT_T0_ENUlvE_D2Ev"(ptr noundef nonnull align 16 dereferenceable(80) %this) unnamed_addr #5 align 2 {
entry:
  %this.addr = alloca ptr, align 8
  store ptr %this, ptr %this.addr, align 8
  %this1 = load ptr, ptr %this.addr, align 8
  %0 = getelementptr inbounds %class.anon, ptr %this1, i32 0, i32 1
  call void @"_ZN9grpc_core14promise_detail11PromiseLikeINS0_3SeqINS_12ArenaPromiseISt10unique_ptrI19grpc_metadata_batchNS_5Arena13PooledDeleterEEEEJZNS_19ConnectedSubchannel15MakeCallPromiseENS_8CallArgsEE3$_0EEEvED2Ev"(ptr noundef nonnull align 16 dereferenceable(64) %0) #3
  %1 = getelementptr inbounds %class.anon, ptr %this1, i32 0, i32 0
  call void @"_ZN9grpc_core22cancel_callback_detail7HandlerIZNS_19ConnectedSubchannel15MakeCallPromiseENS_8CallArgsEE3$_1ED2Ev"(ptr noundef nonnull align 8 dereferenceable(9) %1) #3
  ret void
}