; Function Attrs: mustprogress nounwind uwtable
define internal fastcc void @"_ZZN9grpc_core8OnCancelINS_14promise_detail3SeqINS_12ArenaPromiseISt10unique_ptrI19grpc_metadata_batchNS_5Arena13PooledDeleterEEEEJZNS_19ConnectedSubchannel15MakeCallPromiseENS_8CallArgsEE3$_0EEEZNSA_15MakeCallPromiseESB_E3$_1EEDaT_T0_ENUlvE_D2Ev"(ptr noundef nonnull align 16 dereferenceable(80) %this) unnamed_addr #4 align 2 personality ptr @__gxx_personality_v0 {
entry:
  %0 = getelementptr inbounds i8, ptr %this, i64 16
  tail call fastcc void @"_ZN9grpc_core14promise_detail3SeqINS_12ArenaPromiseISt10unique_ptrI19grpc_metadata_batchNS_5Arena13PooledDeleterEEEEJZNS_19ConnectedSubchannel15MakeCallPromiseENS_8CallArgsEE3$_0EED2Ev"(ptr noundef nonnull align 16 dereferenceable(64) %0) #26
  %done_.i = getelementptr inbounds i8, ptr %this, i64 8
  %1 = load i8, ptr %done_.i, align 8
  %2 = and i8 %1, 1
  %tobool.not.i = icmp eq i8 %2, 0
  br i1 %tobool.not.i, label %if.then.i, label %if.end.i

if.then.i:                                        ; preds = %entry
  %this.val1.i = load ptr, ptr %this, align 16
  %3 = getelementptr i8, ptr %this.val1.i, i64 32
  %this.val1.val.i = load ptr, ptr %3, align 8
  %cmp.not.i.i = icmp eq ptr %this.val1.val.i, null
  br i1 %cmp.not.i.i, label %if.then.i.i, label %do.end.i.i

if.then.i.i:                                      ; preds = %if.then.i
  invoke void @gpr_assertion_failed(ptr noundef nonnull @.str.3, i32 noundef 163, ptr noundef nonnull @.str.10) #29
          to label %.noexc.i unwind label %terminate.lpad.i

.noexc.i:                                         ; preds = %if.then.i.i
  unreachable

do.end.i.i:                                       ; preds = %if.then.i
  %call_counter_.i.i.i = getelementptr inbounds i8, ptr %this.val1.val.i, i64 120
  invoke void @_ZN9grpc_core8channelz18CallCountingHelper16RecordCallFailedEv(ptr noundef nonnull align 8 dereferenceable(32) %call_counter_.i.i.i)
          to label %if.end.i unwind label %terminate.lpad.i

if.end.i:                                         ; preds = %do.end.i.i, %entry
  %this.val.i = load ptr, ptr %this, align 16
  %cmp.not.i.i.i = icmp eq ptr %this.val.i, null
  br i1 %cmp.not.i.i.i, label %"_ZN9grpc_core22cancel_callback_detail7HandlerIZNS_19ConnectedSubchannel15MakeCallPromiseENS_8CallArgsEE3$_1ED2Ev.exit", label %if.then.i.i.i

if.then.i.i.i:                                    ; preds = %if.end.i
  %refs_.i.i.i.i = getelementptr inbounds i8, ptr %this.val.i, i64 8
  %4 = atomicrmw sub ptr %refs_.i.i.i.i, i64 1 acq_rel, align 8
  %cmp.i.i.i.i.i = icmp eq i64 %4, 1
  br i1 %cmp.i.i.i.i.i, label %if.then.i.i.i.i, label %"_ZN9grpc_core22cancel_callback_detail7HandlerIZNS_19ConnectedSubchannel15MakeCallPromiseENS_8CallArgsEE3$_1ED2Ev.exit"

if.then.i.i.i.i:                                  ; preds = %if.then.i.i.i
  %vtable.i.i.i.i.i = load ptr, ptr %this.val.i, align 8
  %vfn.i.i.i.i.i = getelementptr inbounds i8, ptr %vtable.i.i.i.i.i, i64 8
  %5 = load ptr, ptr %vfn.i.i.i.i.i, align 8
  tail call void %5(ptr noundef nonnull align 8 dereferenceable(40) %this.val.i) #26
  br label %"_ZN9grpc_core22cancel_callback_detail7HandlerIZNS_19ConnectedSubchannel15MakeCallPromiseENS_8CallArgsEE3$_1ED2Ev.exit"

terminate.lpad.i:                                 ; preds = %do.end.i.i, %if.then.i.i
  %6 = landingpad { ptr, i32 }
          catch ptr null
  %7 = extractvalue { ptr, i32 } %6, 0
  tail call void @__clang_call_terminate(ptr %7) #27
  unreachable

"_ZN9grpc_core22cancel_callback_detail7HandlerIZNS_19ConnectedSubchannel15MakeCallPromiseENS_8CallArgsEE3$_1ED2Ev.exit": ; preds = %if.end.i, %if.then.i.i.i, %if.then.i.i.i.i
  ret void
}